target datalayout = "e-m:e-p270:32:32-p271:32:32-p272:64:64-i64:64-i128:128-f80:128-n8:16:32:64-S128"
target triple = "x86_64-pc-linux-gnu"

@hf_ndps_pa_name = internal global i32 0, align 4
@hf_ndps_tree = internal global i32 0, align 4
@hf_object_name = internal global i32 0, align 4
@hf_ndps_printer_name = internal global i32 0, align 4
@hf_ndps_qualified_name = internal global i32 0, align 4
@hf_ndps_attribute_value = internal global i32 0, align 4
@hf_ndps_attrib_boolean = internal global i32 0, align 4
@hf_address_type = internal global i32 0, align 4

; Function Attrs: nounwind uwtable
define internal i32 @qualifiedname(ptr noundef %0, ptr noundef %1, i32 noundef %2) #0 {
  %4 = alloca ptr, align 8
  %5 = alloca ptr, align 8
  %6 = alloca i32, align 4
  %7 = alloca i32, align 4
  store ptr %0, ptr %4, align 8
  store ptr %1, ptr %5, align 8
  store i32 %2, ptr %6, align 4
  store i32 0, ptr %7, align 4
  %8 = load ptr, ptr %4, align 8
  %9 = load i32, ptr %6, align 4
  %10 = call i32 @tvb_get_ntohl(ptr noundef %8, i32 noundef %9)
  store i32 %10, ptr %7, align 4
  %11 = load ptr, ptr %5, align 8
  %12 = load i32, ptr @hf_ndps_qualified_name, align 4
  %13 = load ptr, ptr %4, align 8
  %14 = load i32, ptr %6, align 4
  %15 = load i32, ptr %7, align 4
  %16 = call ptr @proto_tree_add_uint(ptr noundef %11, i32 noundef %12, ptr noundef %13, i32 noundef %14, i32 noundef 4, i32 noundef %15)
  %17 = load i32, ptr %6, align 4
  %18 = add i32 %17, 4
  store i32 %18, ptr %6, align 4
  %19 = load i32, ptr %7, align 4
  %20 = icmp ne i32 %19, 0
  br i1 %20, label %21, label %42

21:                                               ; preds = %3
  %22 = load i32, ptr %7, align 4
  %23 = icmp eq i32 %22, 1
  br i1 %23, label %24, label %30

24:                                               ; preds = %21
  %25 = load ptr, ptr %4, align 8
  %26 = load i32, ptr @hf_ndps_printer_name, align 4
  %27 = load ptr, ptr %5, align 8
  %28 = load i32, ptr %6, align 4
  %29 = call i32 @ndps_string(ptr noundef %25, i32 noundef %26, ptr noundef %27, i32 noundef %28, ptr noundef null)
  store i32 %29, ptr %6, align 4
  br label %41

30:                                               ; preds = %21
  %31 = load ptr, ptr %4, align 8
  %32 = load i32, ptr @hf_ndps_pa_name, align 4
  %33 = load ptr, ptr %5, align 8
  %34 = load i32, ptr %6, align 4
  %35 = call i32 @ndps_string(ptr noundef %31, i32 noundef %32, ptr noundef %33, i32 noundef %34, ptr noundef null)
  store i32 %35, ptr %6, align 4
  %36 = load ptr, ptr %4, align 8
  %37 = load i32, ptr @hf_ndps_tree, align 4
  %38 = load ptr, ptr %5, align 8
  %39 = load i32, ptr %6, align 4
  %40 = call i32 @ndps_string(ptr noundef %36, i32 noundef %37, ptr noundef %38, i32 noundef %39, ptr noundef null)
  store i32 %40, ptr %6, align 4
  br label %41

41:                                               ; preds = %30, %24
  br label %42

42:                                               ; preds = %41, %3
  %43 = load i32, ptr %6, align 4
  ret i32 %43
}

; Function Attrs: nounwind uwtable
define internal i32 @address_item(ptr noundef %0, ptr noundef %1, i32 noundef %2) #0 {
  %4 = alloca ptr, align 8
  %5 = alloca ptr, align 8
  %6 = alloca i32, align 4
  %7 = alloca i32, align 4
  store ptr %0, ptr %4, align 8
  store ptr %1, ptr %5, align 8
  store i32 %2, ptr %6, align 4
  store i32 0, ptr %7, align 4
  %8 = load ptr, ptr %4, align 8
  %9 = load i32, ptr %6, align 4
  %10 = call i32 @tvb_get_ntohl(ptr noundef %8, i32 noundef %9)
  store i32 %10, ptr %7, align 4
  %11 = load ptr, ptr %5, align 8
  %12 = load i32, ptr @hf_address_type, align 4
  %13 = load ptr, ptr %4, align 8
  %14 = load i32, ptr %6, align 4
  %15 = load i32, ptr %7, align 4
  %16 = call ptr @proto_tree_add_uint(ptr noundef %11, i32 noundef %12, ptr noundef %13, i32 noundef %14, i32 noundef 4, i32 noundef %15)
  %17 = load i32, ptr %6, align 4
  %18 = add i32 %17, 4
  store i32 %18, ptr %6, align 4
  %19 = load i32, ptr %7, align 4
  switch i32 %19, label %53 [
    i32 0, label %20
    i32 1, label %20
    i32 2, label %20
    i32 3, label %20
    i32 4, label %20
    i32 5, label %20
    i32 6, label %20
    i32 7, label %20
    i32 8, label %25
    i32 9, label %25
    i32 10, label %25
    i32 11, label %25
    i32 12, label %25
    i32 13, label %31
    i32 14, label %39
    i32 15, label %47
    i32 16, label %52
    i32 17, label %52
  ]

20:                                               ; preds = %3, %3, %3, %3, %3, %3, %3, %3
  %21 = load ptr, ptr %4, align 8
  %22 = load ptr, ptr %5, align 8
  %23 = load i32, ptr %6, align 4
  %24 = call i32 @qualifiedname(ptr noundef %21, ptr noundef %22, i32 noundef %23)
  store i32 %24, ptr %6, align 4
  br label %59

25:                                               ; preds = %3, %3, %3, %3, %3
  %26 = load ptr, ptr %4, align 8
  %27 = load i32, ptr @hf_object_name, align 4
  %28 = load ptr, ptr %5, align 8
  %29 = load i32, ptr %6, align 4
  %30 = call i32 @ndps_string(ptr noundef %26, i32 noundef %27, ptr noundef %28, i32 noundef %29, ptr noundef null)
  store i32 %30, ptr %6, align 4
  br label %59

31:                                               ; preds = %3
  %32 = load ptr, ptr %5, align 8
  %33 = load i32, ptr @hf_ndps_attrib_boolean, align 4
  %34 = load ptr, ptr %4, align 8
  %35 = load i32, ptr %6, align 4
  %36 = call ptr @proto_tree_add_item(ptr noundef %32, i32 noundef %33, ptr noundef %34, i32 noundef %35, i32 noundef 4, i32 noundef 0)
  %37 = load i32, ptr %6, align 4
  %38 = add i32 %37, 4
  store i32 %38, ptr %6, align 4
  br label %59

39:                                               ; preds = %3
  %40 = load ptr, ptr %5, align 8
  %41 = load i32, ptr @hf_ndps_attribute_value, align 4
  %42 = load ptr, ptr %4, align 8
  %43 = load i32, ptr %6, align 4
  %44 = call ptr @proto_tree_add_item(ptr noundef %40, i32 noundef %41, ptr noundef %42, i32 noundef %43, i32 noundef 4, i32 noundef 0)
  %45 = load i32, ptr %6, align 4
  %46 = add i32 %45, 4
  store i32 %46, ptr %6, align 4
  br label %59

47:                                               ; preds = %3
  %48 = load ptr, ptr %4, align 8
  %49 = load ptr, ptr %5, align 8
  %50 = load i32, ptr %6, align 4
  %51 = call i32 @print_address(ptr noundef %48, ptr noundef %49, i32 noundef %50)
  store i32 %51, ptr %6, align 4
  br label %59

52:                                               ; preds = %3, %3
  br label %53

53:                                               ; preds = %52, %3
  %54 = load ptr, ptr %4, align 8
  %55 = load i32, ptr @hf_object_name, align 4
  %56 = load ptr, ptr %5, align 8
  %57 = load i32, ptr %6, align 4
  %58 = call i32 @ndps_string(ptr noundef %54, i32 noundef %55, ptr noundef %56, i32 noundef %57, ptr noundef null)
  store i32 %58, ptr %6, align 4
  br label %59

59:                                               ; preds = %53, %47, %39, %31, %25, %20
  %60 = load i32, ptr %6, align 4
  ret i32 %60
}