; Function Attrs: nounwind uwtable
define internal fastcc i32 @address_item(ptr noundef %0, ptr noundef %1, i32 noundef %2) unnamed_addr #0 {
  %4 = tail call i32 @tvb_get_ntohl(ptr noundef %0, i32 noundef %2) #6
  %5 = load i32, ptr @hf_address_type, align 4
  %6 = tail call ptr @proto_tree_add_uint(ptr noundef %1, i32 noundef %5, ptr noundef %0, i32 noundef %2, i32 noundef 4, i32 noundef %4) #6
  %7 = add i32 %2, 4
  switch i32 %4, label %31 [
    i32 0, label %8
    i32 1, label %8
    i32 2, label %8
    i32 3, label %8
    i32 4, label %8
    i32 5, label %8
    i32 6, label %8
    i32 7, label %8
    i32 8, label %18
    i32 9, label %18
    i32 10, label %18
    i32 11, label %18
    i32 12, label %18
    i32 13, label %21
    i32 14, label %25
    i32 15, label %29
  ]

8:                                                ; preds = %3, %3, %3, %3, %3, %3, %3, %3
  %9 = tail call i32 @tvb_get_ntohl(ptr noundef %0, i32 noundef %7) #6
  %10 = load i32, ptr @hf_ndps_qualified_name, align 4
  %11 = tail call ptr @proto_tree_add_uint(ptr noundef %1, i32 noundef %10, ptr noundef %0, i32 noundef %7, i32 noundef 4, i32 noundef %9) #6
  %12 = add i32 %2, 8
  switch i32 %9, label %13 [
    i32 0, label %qualifiedname.exit
    i32 1, label %.sink.split.i
  ]

13:                                               ; preds = %8
  %14 = load i32, ptr @hf_ndps_pa_name, align 4
  %15 = tail call fastcc i32 @ndps_string(ptr noundef %0, i32 noundef %14, ptr noundef %1, i32 noundef %12, ptr noundef null)
  br label %.sink.split.i

.sink.split.i:                                    ; preds = %13, %8
  %hf_ndps_printer_name.sink.i = phi ptr [ @hf_ndps_tree, %13 ], [ @hf_ndps_printer_name, %8 ]
  %.sink19.i = phi i32 [ %15, %13 ], [ %12, %8 ]
  %16 = load i32, ptr %hf_ndps_printer_name.sink.i, align 4
  %17 = tail call fastcc i32 @ndps_string(ptr noundef %0, i32 noundef %16, ptr noundef %1, i32 noundef %.sink19.i, ptr noundef null)
  br label %qualifiedname.exit

18:                                               ; preds = %3, %3, %3, %3, %3
  %19 = load i32, ptr @hf_object_name, align 4
  %20 = tail call fastcc i32 @ndps_string(ptr noundef %0, i32 noundef %19, ptr noundef %1, i32 noundef %7, ptr noundef null)
  br label %qualifiedname.exit

21:                                               ; preds = %3
  %22 = load i32, ptr @hf_ndps_attrib_boolean, align 4
  %23 = tail call ptr @proto_tree_add_item(ptr noundef %1, i32 noundef %22, ptr noundef %0, i32 noundef %7, i32 noundef 4, i32 noundef 0) #6
  %24 = add i32 %2, 8
  br label %qualifiedname.exit

25:                                               ; preds = %3
  %26 = load i32, ptr @hf_ndps_attribute_value, align 4
  %27 = tail call ptr @proto_tree_add_item(ptr noundef %1, i32 noundef %26, ptr noundef %0, i32 noundef %7, i32 noundef 4, i32 noundef 0) #6
  %28 = add i32 %2, 8
  br label %qualifiedname.exit

29:                                               ; preds = %3
  %30 = tail call fastcc i32 @print_address(ptr noundef %0, ptr noundef %1, i32 noundef %7)
  br label %qualifiedname.exit

31:                                               ; preds = %3
  %32 = load i32, ptr @hf_object_name, align 4
  %33 = tail call fastcc i32 @ndps_string(ptr noundef %0, i32 noundef %32, ptr noundef %1, i32 noundef %7, ptr noundef null)
  br label %qualifiedname.exit

qualifiedname.exit:                               ; preds = %.sink.split.i, %8, %31, %29, %25, %21, %18
  %.0 = phi i32 [ %33, %31 ], [ %30, %29 ], [ %28, %25 ], [ %24, %21 ], [ %20, %18 ], [ %12, %8 ], [ %17, %.sink.split.i ]
  ret i32 %.0
}